; ModuleID = '6/1654.c'
source_filename = "6/1654.c"
target datalayout = "e-m:e-p270:32:32-p271:32:32-p272:64:64-i64:64-f80:128-n8:16:32:64-S128"
target triple = "x86_64-pc-linux-gnu"

@.str = private unnamed_addr constant [3 x i8] c"%d\00", align 1
@.str.1 = private unnamed_addr constant [6 x i8] c"%d %d\00", align 1
@.str.2 = private unnamed_addr constant [4 x i8] c"%d\0A\00", align 1

; Function Attrs: noinline nounwind uwtable
define dso_local i32 @main() #0 {
  %1 = alloca i32, align 4
  %2 = alloca i32, align 4
  %3 = alloca i32, align 4
  %4 = alloca i32, align 4
  %5 = alloca i32, align 4
  %6 = alloca i8*, align 8
  %7 = alloca i64, align 8
  %8 = alloca i64, align 8
  %9 = alloca i32, align 4
  %10 = alloca i32, align 4
  %11 = alloca i32, align 4
  %12 = alloca i32, align 4
  %13 = alloca i32, align 4
  %14 = alloca i32, align 4
  %15 = alloca i32, align 4
  store i32 0, i32* %1, align 4
  %16 = call i32 (i8*, ...) @__isoc99_scanf(i8* getelementptr inbounds ([3 x i8], [3 x i8]* @.str, i64 0, i64 0), i32* %2)
  store i32 1, i32* %5, align 4
  br label %17

17:                                               ; preds = %117, %0
  %18 = load i32, i32* %5, align 4
  %19 = load i32, i32* %2, align 4
  %20 = icmp sle i32 %18, %19
  br i1 %20, label %21, label %120

21:                                               ; preds = %17
  %22 = call i32 (i8*, ...) @__isoc99_scanf(i8* getelementptr inbounds ([6 x i8], [6 x i8]* @.str.1, i64 0, i64 0), i32* %3, i32* %4)
  %23 = load i32, i32* %3, align 4
  %24 = zext i32 %23 to i64
  %25 = load i32, i32* %4, align 4
  %26 = zext i32 %25 to i64
  %27 = call i8* @llvm.stacksave()
  store i8* %27, i8** %6, align 8
  %28 = mul nuw i64 %24, %26
  %29 = alloca i32, i64 %28, align 16
  store i64 %24, i64* %7, align 8
  store i64 %26, i64* %8, align 8
  store i32 0, i32* %9, align 4
  br label %30

30:                                               ; preds = %52, %21
  %31 = load i32, i32* %9, align 4
  %32 = load i32, i32* %3, align 4
  %33 = icmp slt i32 %31, %32
  br i1 %33, label %34, label %55

34:                                               ; preds = %30
  store i32 0, i32* %10, align 4
  br label %35

35:                                               ; preds = %48, %34
  %36 = load i32, i32* %10, align 4
  %37 = load i32, i32* %4, align 4
  %38 = icmp slt i32 %36, %37
  br i1 %38, label %39, label %51

39:                                               ; preds = %35
  %40 = load i32, i32* %9, align 4
  %41 = sext i32 %40 to i64
  %42 = mul nsw i64 %41, %26
  %43 = getelementptr inbounds i32, i32* %29, i64 %42
  %44 = load i32, i32* %10, align 4
  %45 = sext i32 %44 to i64
  %46 = getelementptr inbounds i32, i32* %43, i64 %45
  %47 = call i32 (i8*, ...) @__isoc99_scanf(i8* getelementptr inbounds ([3 x i8], [3 x i8]* @.str, i64 0, i64 0), i32* %46)
  br label %48

48:                                               ; preds = %39
  %49 = load i32, i32* %10, align 4
  %50 = add nsw i32 %49, 1
  store i32 %50, i32* %10, align 4
  br label %35

51:                                               ; preds = %35
  br label %52

52:                                               ; preds = %51
  %53 = load i32, i32* %9, align 4
  %54 = add nsw i32 %53, 1
  store i32 %54, i32* %9, align 4
  br label %30

55:                                               ; preds = %30
  store i32 0, i32* %11, align 4
  store i32 0, i32* %12, align 4
  br label %56

56:                                               ; preds = %80, %55
  %57 = load i32, i32* %12, align 4
  %58 = load i32, i32* %3, align 4
  %59 = icmp slt i32 %57, %58
  br i1 %59, label %60, label %83

60:                                               ; preds = %56
  store i32 0, i32* %13, align 4
  br label %61

61:                                               ; preds = %76, %60
  %62 = load i32, i32* %13, align 4
  %63 = load i32, i32* %4, align 4
  %64 = icmp slt i32 %62, %63
  br i1 %64, label %65, label %79

65:                                               ; preds = %61
  %66 = load i32, i32* %12, align 4
  %67 = sext i32 %66 to i64
  %68 = mul nsw i64 %67, %26
  %69 = getelementptr inbounds i32, i32* %29, i64 %68
  %70 = load i32, i32* %13, align 4
  %71 = sext i32 %70 to i64
  %72 = getelementptr inbounds i32, i32* %69, i64 %71
  %73 = load i32, i32* %72, align 4
  %74 = load i32, i32* %11, align 4
  %75 = add nsw i32 %74, %73
  store i32 %75, i32* %11, align 4
  br label %76

76:                                               ; preds = %65
  %77 = load i32, i32* %13, align 4
  %78 = add nsw i32 %77, 1
  store i32 %78, i32* %13, align 4
  br label %61

79:                                               ; preds = %61
  br label %80

80:                                               ; preds = %79
  %81 = load i32, i32* %12, align 4
  %82 = add nsw i32 %81, 1
  store i32 %82, i32* %12, align 4
  br label %56

83:                                               ; preds = %56
  store i32 1, i32* %14, align 4
  br label %84

84:                                               ; preds = %110, %83
  %85 = load i32, i32* %14, align 4
  %86 = load i32, i32* %3, align 4
  %87 = sub nsw i32 %86, 1
  %88 = icmp slt i32 %85, %87
  br i1 %88, label %89, label %113

89:                                               ; preds = %84
  store i32 1, i32* %15, align 4
  br label %90

90:                                               ; preds = %106, %89
  %91 = load i32, i32* %15, align 4
  %92 = load i32, i32* %4, align 4
  %93 = sub nsw i32 %92, 1
  %94 = icmp slt i32 %91, %93
  br i1 %94, label %95, label %109

95:                                               ; preds = %90
  %96 = load i32, i32* %14, align 4
  %97 = sext i32 %96 to i64
  %98 = mul nsw i64 %97, %26
  %99 = getelementptr inbounds i32, i32* %29, i64 %98
  %100 = load i32, i32* %15, align 4
  %101 = sext i32 %100 to i64
  %102 = getelementptr inbounds i32, i32* %99, i64 %101
  %103 = load i32, i32* %102, align 4
  %104 = load i32, i32* %11, align 4
  %105 = sub nsw i32 %104, %103
  store i32 %105, i32* %11, align 4
  br label %106

106:                                              ; preds = %95
  %107 = load i32, i32* %15, align 4
  %108 = add nsw i32 %107, 1
  store i32 %108, i32* %15, align 4
  br label %90

109:                                              ; preds = %90
  br label %110

110:                                              ; preds = %109
  %111 = load i32, i32* %14, align 4
  %112 = add nsw i32 %111, 1
  store i32 %112, i32* %14, align 4
  br label %84

113:                                              ; preds = %84
  %114 = load i32, i32* %11, align 4
  %115 = call i32 (i8*, ...) @printf(i8* getelementptr inbounds ([4 x i8], [4 x i8]* @.str.2, i64 0, i64 0), i32 %114)
  %116 = load i8*, i8** %6, align 8
  call void @llvm.stackrestore(i8* %116)
  br label %117

117:                                              ; preds = %113
  %118 = load i32, i32* %5, align 4
  %119 = add nsw i32 %118, 1
  store i32 %119, i32* %5, align 4
  br label %17

120:                                              ; preds = %17
  ret i32 0
}

declare dso_local i32 @__isoc99_scanf(i8*, ...) #1

; Function Attrs: nounwind
declare i8* @llvm.stacksave() #2

declare dso_local i32 @printf(i8*, ...) #1

; Function Attrs: nounwind
declare void @llvm.stackrestore(i8*) #2


!llvm.module.flags = !{!0}
!llvm.ident = !{!1}

!0 = !{i32 1, !"wchar_size", i32 4}
!1 = !{!"clang version 10.0.0-4ubuntu1 "}
